target datalayout = "e-m:e-p270:32:32-p271:32:32-p272:64:64-i64:64-i128:128-f80:128-n8:16:32:64-S128"
target triple = "x86_64-pc-linux-gnu"

%"class.llvm::Value" = type { i8, i8, i16, i32, ptr, ptr }

; Function Attrs: mustprogress nounwind uwtable
define linkonce_odr hidden noundef zeroext i1 @_ZN4llvm8isa_implINS_11InstructionENS_5ValueEvE4doitERKS2_(ptr noundef nonnull align 8 dereferenceable(24) %0) #0 comdat align 2 {
  %2 = alloca ptr, align 8
  store ptr %0, ptr %2, align 8
  %3 = load ptr, ptr %2, align 8
  %4 = call noundef i32 @_ZNK4llvm5Value10getValueIDEv(ptr noundef nonnull align 8 dereferenceable(24) %3)
  %5 = icmp uge i32 %4, 29
  ret i1 %5
}

; Function Attrs: mustprogress nounwind uwtable
define linkonce_odr hidden noundef zeroext i1 @_ZN4llvm11isa_impl_clINS_11InstructionEPKNS_5ValueEE4doitES4_(ptr noundef %0) #0 comdat align 2 {
  %2 = alloca ptr, align 8
  store ptr %0, ptr %2, align 8
  %3 = load ptr, ptr %2, align 8
  %4 = call noundef zeroext i1 @_ZN4llvm8isa_implINS_11InstructionENS_5ValueEvE4doitERKS2_(ptr noundef nonnull align 8 dereferenceable(24) %3)
  ret i1 %4
}

; Function Attrs: mustprogress nounwind uwtable
define linkonce_odr hidden noundef zeroext i1 @_ZN4llvm13isa_impl_wrapINS_11InstructionEPKNS_5ValueES4_E4doitERKS4_(ptr noundef nonnull align 8 dereferenceable(8) %0) #0 comdat align 2 {
  %2 = alloca ptr, align 8
  store ptr %0, ptr %2, align 8
  %3 = load ptr, ptr %2, align 8
  %4 = load ptr, ptr %3, align 8
  %5 = call noundef zeroext i1 @_ZN4llvm11isa_impl_clINS_11InstructionEPKNS_5ValueEE4doitES4_(ptr noundef %4)
  ret i1 %5
}

; Function Attrs: mustprogress nounwind uwtable
define linkonce_odr hidden noundef zeroext i1 @_ZN4llvm13isa_impl_wrapINS_11InstructionEKPKNS_5ValueES4_E4doitERS5_(ptr noundef nonnull align 8 dereferenceable(8) %0) #0 comdat align 2 {
  %2 = alloca ptr, align 8
  %3 = alloca ptr, align 8
  store ptr %0, ptr %2, align 8
  %4 = load ptr, ptr %2, align 8
  %5 = call noundef ptr @_ZN4llvm13simplify_typeIKPKNS_5ValueEE18getSimplifiedValueERS4_(ptr noundef nonnull align 8 dereferenceable(8) %4)
  store ptr %5, ptr %3, align 8
  %6 = call noundef zeroext i1 @_ZN4llvm13isa_impl_wrapINS_11InstructionEPKNS_5ValueES4_E4doitERKS4_(ptr noundef nonnull align 8 dereferenceable(8) %3)
  ret i1 %6
}

; Function Attrs: mustprogress nounwind uwtable
define linkonce_odr hidden noundef nonnull align 8 dereferenceable(8) ptr @_ZN4llvm13simplify_typeIPKNS_5ValueEE18getSimplifiedValueERS3_(ptr noundef nonnull align 8 dereferenceable(8) %0) #0 comdat align 2 {
  %2 = alloca ptr, align 8
  store ptr %0, ptr %2, align 8
  %3 = load ptr, ptr %2, align 8
  ret ptr %3
}

; Function Attrs: mustprogress nounwind uwtable
define linkonce_odr hidden noundef i32 @_ZNK4llvm5Value10getValueIDEv(ptr noundef nonnull align 8 dereferenceable(24) %0) #0 comdat align 2 {
  %2 = alloca ptr, align 8
  store ptr %0, ptr %2, align 8
  %3 = load ptr, ptr %2, align 8
  %4 = getelementptr inbounds nuw %"class.llvm::Value", ptr %3, i32 0, i32 0
  %5 = load i8, ptr %4, align 8
  %6 = zext i8 %5 to i32
  ret i32 %6
}

; Function Attrs: mustprogress nounwind uwtable
define linkonce_odr hidden noundef ptr @_ZN4llvm16cast_convert_valINS_11InstructionEPKNS_5ValueES4_E4doitES4_(ptr noundef %0) #0 comdat align 2 {
  %2 = alloca ptr, align 8
  store ptr %0, ptr %2, align 8
  %3 = load ptr, ptr %2, align 8
  ret ptr %3
}

; Function Attrs: mustprogress nounwind uwtable
define linkonce_odr hidden noundef zeroext i1 @_ZN4llvm14CastIsPossibleINS_11InstructionEPKNS_5ValueEvE10isPossibleERKS4_(ptr noundef nonnull align 8 dereferenceable(8) %0) #0 comdat align 2 {
  %2 = alloca ptr, align 8
  store ptr %0, ptr %2, align 8
  %3 = load ptr, ptr %2, align 8
  %4 = call noundef zeroext i1 @_ZN4llvm13isa_impl_wrapINS_11InstructionEKPKNS_5ValueES4_E4doitERS5_(ptr noundef nonnull align 8 dereferenceable(8) %3)
  ret i1 %4
}

; Function Attrs: mustprogress nounwind uwtable
define linkonce_odr hidden noundef ptr @_ZN4llvm13simplify_typeIKPKNS_5ValueEE18getSimplifiedValueERS4_(ptr noundef nonnull align 8 dereferenceable(8) %0) #0 comdat align 2 {
  %2 = alloca ptr, align 8
  store ptr %0, ptr %2, align 8
  %3 = load ptr, ptr %2, align 8
  %4 = call noundef nonnull align 8 dereferenceable(8) ptr @_ZN4llvm13simplify_typeIPKNS_5ValueEE18getSimplifiedValueERS3_(ptr noundef nonnull align 8 dereferenceable(8) %3)
  %5 = load ptr, ptr %4, align 8
  ret ptr %5
}

; Function Attrs: mustprogress nounwind uwtable
define linkonce_odr hidden noundef i32 @_ZNK4llvm11Instruction9getOpcodeEv(ptr noundef nonnull align 8 dereferenceable(72) %0) #0 comdat align 2 {
  %2 = alloca ptr, align 8
  store ptr %0, ptr %2, align 8
  %3 = load ptr, ptr %2, align 8
  %4 = call noundef i32 @_ZNK4llvm5Value10getValueIDEv(ptr noundef nonnull align 8 dereferenceable(24) %3)
  %5 = sub i32 %4, 29
  ret i32 %5
}

; Function Attrs: mustprogress nounwind uwtable
define linkonce_odr hidden noundef ptr @_ZN4llvm8CastInfoINS_11InstructionEPKNS_5ValueEvE6doCastERKS4_(ptr noundef nonnull align 8 dereferenceable(8) %0) #0 comdat align 2 {
  %2 = alloca ptr, align 8
  store ptr %0, ptr %2, align 8
  %3 = load ptr, ptr %2, align 8
  %4 = load ptr, ptr %3, align 8
  %5 = call noundef ptr @_ZN4llvm16cast_convert_valINS_11InstructionEPKNS_5ValueES4_E4doitES4_(ptr noundef %4)
  ret ptr %5
}

; Function Attrs: mustprogress nounwind uwtable
define linkonce_odr hidden noundef zeroext i1 @_ZN4llvm8CastInfoINS_11InstructionEKPKNS_5ValueEvE10isPossibleERS5_(ptr noundef nonnull align 8 dereferenceable(8) %0) #0 comdat align 2 {
  %2 = alloca ptr, align 8
  %3 = alloca ptr, align 8
  store ptr %0, ptr %2, align 8
  %4 = load ptr, ptr %2, align 8
  %5 = call noundef ptr @_ZN4llvm13simplify_typeIKPKNS_5ValueEE18getSimplifiedValueERS4_(ptr noundef nonnull align 8 dereferenceable(8) %4)
  store ptr %5, ptr %3, align 8
  %6 = call noundef zeroext i1 @_ZN4llvm14CastIsPossibleINS_11InstructionEPKNS_5ValueEvE10isPossibleERKS4_(ptr noundef nonnull align 8 dereferenceable(8) %3)
  ret i1 %6
}

; Function Attrs: mustprogress nounwind uwtable
define linkonce_odr hidden noundef zeroext i1 @_ZN4llvm10FPToUIInst7classofEPKNS_11InstructionE(ptr noundef %0) #0 comdat align 2 {
  %2 = alloca ptr, align 8
  store ptr %0, ptr %2, align 8
  %3 = load ptr, ptr %2, align 8
  %4 = call noundef i32 @_ZNK4llvm11Instruction9getOpcodeEv(ptr noundef nonnull align 8 dereferenceable(72) %3)
  %5 = icmp eq i32 %4, 41
  ret i1 %5
}

; Function Attrs: mustprogress nounwind uwtable
define linkonce_odr hidden noundef ptr @_ZN4llvm4castINS_11InstructionEKNS_5ValueEEEDcPT0_(ptr noundef %0) #0 comdat {
  %2 = alloca ptr, align 8
  store ptr %0, ptr %2, align 8
  %3 = call noundef ptr @_ZN4llvm8CastInfoINS_11InstructionEPKNS_5ValueEvE6doCastERKS4_(ptr noundef nonnull align 8 dereferenceable(8) %2)
  ret ptr %3
}

; Function Attrs: mustprogress nounwind uwtable
define linkonce_odr hidden noundef zeroext i1 @_ZN4llvm3isaINS_11InstructionEPKNS_5ValueEEEbRKT0_(ptr noundef nonnull align 8 dereferenceable(8) %0) #0 comdat {
  %2 = alloca ptr, align 8
  store ptr %0, ptr %2, align 8
  %3 = load ptr, ptr %2, align 8
  %4 = call noundef zeroext i1 @_ZN4llvm8CastInfoINS_11InstructionEKPKNS_5ValueEvE10isPossibleERS5_(ptr noundef nonnull align 8 dereferenceable(8) %3)
  ret i1 %4
}

; Function Attrs: mustprogress nounwind uwtable
define linkonce_odr hidden noundef zeroext i1 @_ZN4llvm10FPToUIInst7classofEPKNS_5ValueE(ptr noundef %0) #0 comdat align 2 {
  %2 = alloca ptr, align 8
  store ptr %0, ptr %2, align 8
  %3 = call noundef zeroext i1 @_ZN4llvm3isaINS_11InstructionEPKNS_5ValueEEEbRKT0_(ptr noundef nonnull align 8 dereferenceable(8) %2)
  br i1 %3, label %4, label %8

4:                                                ; preds = %1
  %5 = load ptr, ptr %2, align 8
  %6 = call noundef ptr @_ZN4llvm4castINS_11InstructionEKNS_5ValueEEEDcPT0_(ptr noundef %5)
  %7 = call noundef zeroext i1 @_ZN4llvm10FPToUIInst7classofEPKNS_11InstructionE(ptr noundef %6)
  br label %8

8:                                                ; preds = %4, %1
  %9 = phi i1 [ false, %1 ], [ %7, %4 ]
  ret i1 %9
}

; Function Attrs: mustprogress nounwind uwtable
define linkonce_odr hidden noundef zeroext i1 @_ZN4llvm8isa_implINS_10FPToUIInstENS_5ValueEvE4doitERKS2_(ptr noundef nonnull align 8 dereferenceable(24) %0) #0 comdat align 2 {
  %2 = alloca ptr, align 8
  store ptr %0, ptr %2, align 8
  %3 = load ptr, ptr %2, align 8
  %4 = call noundef zeroext i1 @_ZN4llvm10FPToUIInst7classofEPKNS_5ValueE(ptr noundef %3)
  ret i1 %4
}

; Function Attrs: mustprogress nounwind uwtable
define linkonce_odr hidden noundef zeroext i1 @_ZN4llvm11isa_impl_clINS_10FPToUIInstEPKNS_5ValueEE4doitES4_(ptr noundef %0) #0 comdat align 2 {
  %2 = alloca ptr, align 8
  store ptr %0, ptr %2, align 8
  %3 = load ptr, ptr %2, align 8
  %4 = call noundef zeroext i1 @_ZN4llvm8isa_implINS_10FPToUIInstENS_5ValueEvE4doitERKS2_(ptr noundef nonnull align 8 dereferenceable(24) %3)
  ret i1 %4
}

; Function Attrs: mustprogress nounwind uwtable
define linkonce_odr hidden noundef zeroext i1 @_ZN4llvm13isa_impl_wrapINS_10FPToUIInstEPKNS_5ValueES4_E4doitERKS4_(ptr noundef nonnull align 8 dereferenceable(8) %0) #0 comdat align 2 {
  %2 = alloca ptr, align 8
  store ptr %0, ptr %2, align 8
  %3 = load ptr, ptr %2, align 8
  %4 = load ptr, ptr %3, align 8
  %5 = call noundef zeroext i1 @_ZN4llvm11isa_impl_clINS_10FPToUIInstEPKNS_5ValueEE4doitES4_(ptr noundef %4)
  ret i1 %5
}

; Function Attrs: mustprogress nounwind uwtable
define linkonce_odr hidden noundef ptr @_ZN4llvm13simplify_typeIKPNS_5ValueEE18getSimplifiedValueERS3_(ptr noundef nonnull align 8 dereferenceable(8) %0) #0 comdat align 2 {
  %2 = alloca ptr, align 8
  store ptr %0, ptr %2, align 8
  %3 = load ptr, ptr %2, align 8
  %4 = call noundef nonnull align 8 dereferenceable(8) ptr @_ZN4llvm13simplify_typeIPNS_5ValueEE18getSimplifiedValueERS2_(ptr noundef nonnull align 8 dereferenceable(8) %3)
  %5 = load ptr, ptr %4, align 8
  ret ptr %5
}

; Function Attrs: mustprogress nounwind uwtable
define linkonce_odr hidden noundef ptr @_ZN4llvm16cast_convert_valINS_10FPToUIInstEPNS_5ValueES3_E4doitEPKS2_(ptr noundef %0) #0 comdat align 2 {
  %2 = alloca ptr, align 8
  store ptr %0, ptr %2, align 8
  %3 = load ptr, ptr %2, align 8
  ret ptr %3
}

; Function Attrs: mustprogress nounwind uwtable
define linkonce_odr hidden noundef zeroext i1 @_ZN4llvm13isa_impl_wrapINS_10FPToUIInstEKPNS_5ValueEPKS2_E4doitERS4_(ptr noundef nonnull align 8 dereferenceable(8) %0) #0 comdat align 2 {
  %2 = alloca ptr, align 8
  %3 = alloca ptr, align 8
  store ptr %0, ptr %2, align 8
  %4 = load ptr, ptr %2, align 8
  %5 = call noundef ptr @_ZN4llvm13simplify_typeIKPNS_5ValueEE18getSimplifiedValueERS3_(ptr noundef nonnull align 8 dereferenceable(8) %4)
  store ptr %5, ptr %3, align 8
  %6 = call noundef zeroext i1 @_ZN4llvm13isa_impl_wrapINS_10FPToUIInstEPKNS_5ValueES4_E4doitERKS4_(ptr noundef nonnull align 8 dereferenceable(8) %3)
  ret i1 %6
}

; Function Attrs: mustprogress nounwind uwtable
define linkonce_odr hidden noundef ptr @_ZN4llvm8CastInfoINS_10FPToUIInstEPNS_5ValueEvE6doCastERKS3_(ptr noundef nonnull align 8 dereferenceable(8) %0) #0 comdat align 2 {
  %2 = alloca ptr, align 8
  store ptr %0, ptr %2, align 8
  %3 = load ptr, ptr %2, align 8
  %4 = load ptr, ptr %3, align 8
  %5 = call noundef ptr @_ZN4llvm16cast_convert_valINS_10FPToUIInstEPNS_5ValueES3_E4doitEPKS2_(ptr noundef %4)
  ret ptr %5
}

; Function Attrs: mustprogress nounwind uwtable
define linkonce_odr hidden noundef zeroext i1 @_ZN4llvm14CastIsPossibleINS_10FPToUIInstEPNS_5ValueEvE10isPossibleERKS3_(ptr noundef nonnull align 8 dereferenceable(8) %0) #0 comdat align 2 {
  %2 = alloca ptr, align 8
  store ptr %0, ptr %2, align 8
  %3 = load ptr, ptr %2, align 8
  %4 = call noundef zeroext i1 @_ZN4llvm13isa_impl_wrapINS_10FPToUIInstEKPNS_5ValueEPKS2_E4doitERS4_(ptr noundef nonnull align 8 dereferenceable(8) %3)
  ret i1 %4
}

; Function Attrs: mustprogress nounwind uwtable
define linkonce_odr hidden noundef nonnull align 8 dereferenceable(8) ptr @_ZN4llvm14ValueIsPresentIPNS_5ValueEvE11unwrapValueERS2_(ptr noundef nonnull align 8 dereferenceable(8) %0) #0 comdat align 2 {
  %2 = alloca ptr, align 8
  store ptr %0, ptr %2, align 8
  %3 = load ptr, ptr %2, align 8
  ret ptr %3
}

; Function Attrs: mustprogress nounwind uwtable
define linkonce_odr hidden noundef zeroext i1 @_ZN4llvm14ValueIsPresentIPNS_5ValueEvE9isPresentERKS2_(ptr noundef nonnull align 8 dereferenceable(8) %0) #0 comdat align 2 {
  %2 = alloca ptr, align 8
  store ptr %0, ptr %2, align 8
  %3 = load ptr, ptr %2, align 8
  %4 = load ptr, ptr %3, align 8
  %5 = icmp ne ptr %4, null
  ret i1 %5
}

; Function Attrs: mustprogress nounwind uwtable
define linkonce_odr hidden noundef nonnull align 8 dereferenceable(8) ptr @_ZN4llvm13simplify_typeIPNS_5ValueEE18getSimplifiedValueERS2_(ptr noundef nonnull align 8 dereferenceable(8) %0) #0 comdat align 2 {
  %2 = alloca ptr, align 8
  store ptr %0, ptr %2, align 8
  %3 = load ptr, ptr %2, align 8
  ret ptr %3
}

; Function Attrs: mustprogress nounwind uwtable
define linkonce_odr hidden noundef ptr @_ZN4llvm8CastInfoINS_10FPToUIInstEPNS_5ValueEvE16doCastIfPossibleERKS3_(ptr noundef nonnull align 8 dereferenceable(8) %0) #0 comdat align 2 {
  %2 = alloca ptr, align 8
  %3 = alloca ptr, align 8
  store ptr %0, ptr %3, align 8
  %4 = load ptr, ptr %3, align 8
  %5 = call noundef zeroext i1 @_ZN4llvm14CastIsPossibleINS_10FPToUIInstEPNS_5ValueEvE10isPossibleERKS3_(ptr noundef nonnull align 8 dereferenceable(8) %4)
  br i1 %5, label %8, label %6

6:                                                ; preds = %1
  %7 = call noundef ptr @_ZN4llvm8CastInfoINS_10FPToUIInstEPNS_5ValueEvE10castFailedEv()
  store ptr %7, ptr %2, align 8
  br label %11

8:                                                ; preds = %1
  %9 = load ptr, ptr %3, align 8
  %10 = call noundef ptr @_ZN4llvm8CastInfoINS_10FPToUIInstEPNS_5ValueEvE6doCastERKS3_(ptr noundef nonnull align 8 dereferenceable(8) %9)
  store ptr %10, ptr %2, align 8
  br label %11

11:                                               ; preds = %8, %6
  %12 = load ptr, ptr %2, align 8
  ret ptr %12
}

; Function Attrs: mustprogress nounwind uwtable
define linkonce_odr hidden noundef nonnull align 8 dereferenceable(8) ptr @_ZN4llvm6detail11unwrapValueIPNS_5ValueEEEDcRT_(ptr noundef nonnull align 8 dereferenceable(8) %0) #0 comdat {
  %2 = alloca ptr, align 8
  store ptr %0, ptr %2, align 8
  %3 = load ptr, ptr %2, align 8
  %4 = call noundef nonnull align 8 dereferenceable(8) ptr @_ZN4llvm14ValueIsPresentIPNS_5ValueEvE11unwrapValueERS2_(ptr noundef nonnull align 8 dereferenceable(8) %3)
  ret ptr %4
}

; Function Attrs: mustprogress nounwind uwtable
define linkonce_odr hidden noundef ptr @_ZN4llvm8CastInfoINS_10FPToUIInstEPNS_5ValueEvE10castFailedEv() #0 comdat align 2 {
  ret ptr null
}

; Function Attrs: mustprogress nounwind uwtable
define linkonce_odr hidden noundef zeroext i1 @_ZN4llvm6detail9isPresentIPNS_5ValueEEEbRKT_(ptr noundef nonnull align 8 dereferenceable(8) %0) #0 comdat {
  %2 = alloca ptr, align 8
  store ptr %0, ptr %2, align 8
  %3 = load ptr, ptr %2, align 8
  %4 = call noundef nonnull align 8 dereferenceable(8) ptr @_ZN4llvm13simplify_typeIPNS_5ValueEE18getSimplifiedValueERS2_(ptr noundef nonnull align 8 dereferenceable(8) %3)
  %5 = call noundef zeroext i1 @_ZN4llvm14ValueIsPresentIPNS_5ValueEvE9isPresentERKS2_(ptr noundef nonnull align 8 dereferenceable(8) %4)
  ret i1 %5
}

; Function Attrs: mustprogress nounwind uwtable
define linkonce_odr noundef ptr @_ZN4llvm19dyn_cast_if_presentINS_10FPToUIInstENS_5ValueEEEDaPT0_(ptr noundef %0) #0 comdat {
  %2 = alloca ptr, align 8
  %3 = alloca ptr, align 8
  store ptr %0, ptr %3, align 8
  %4 = call noundef zeroext i1 @_ZN4llvm6detail9isPresentIPNS_5ValueEEEbRKT_(ptr noundef nonnull align 8 dereferenceable(8) %3)
  br i1 %4, label %7, label %5

5:                                                ; preds = %1
  %6 = call noundef ptr @_ZN4llvm8CastInfoINS_10FPToUIInstEPNS_5ValueEvE10castFailedEv()
  store ptr %6, ptr %2, align 8
  br label %10

7:                                                ; preds = %1
  %8 = call noundef nonnull align 8 dereferenceable(8) ptr @_ZN4llvm6detail11unwrapValueIPNS_5ValueEEEDcRT_(ptr noundef nonnull align 8 dereferenceable(8) %3)
  %9 = call noundef ptr @_ZN4llvm8CastInfoINS_10FPToUIInstEPNS_5ValueEvE16doCastIfPossibleERKS3_(ptr noundef nonnull align 8 dereferenceable(8) %8)
  store ptr %9, ptr %2, align 8
  br label %10

10:                                               ; preds = %7, %5
  %11 = load ptr, ptr %2, align 8
  ret ptr %11
}

; Function Attrs: mustprogress nounwind uwtable
define linkonce_odr hidden noundef ptr @_ZN4llvm4wrapEPKNS_5ValueE(ptr noundef %0) #0 comdat {
  %2 = alloca ptr, align 8
  store ptr %0, ptr %2, align 8
  %3 = load ptr, ptr %2, align 8
  ret ptr %3
}

; Function Attrs: mustprogress nounwind uwtable
define linkonce_odr noundef ptr @_ZN4llvm16dyn_cast_or_nullINS_10FPToUIInstENS_5ValueEEEDaPT0_(ptr noundef %0) #0 comdat {
  %2 = alloca ptr, align 8
  store ptr %0, ptr %2, align 8
  %3 = load ptr, ptr %2, align 8
  %4 = call noundef ptr @_ZN4llvm19dyn_cast_if_presentINS_10FPToUIInstENS_5ValueEEEDaPT0_(ptr noundef %3)
  ret ptr %4
}

; Function Attrs: mustprogress nounwind uwtable
define linkonce_odr hidden noundef ptr @_ZN4llvm6unwrapEP15LLVMOpaqueValue(ptr noundef %0) #0 comdat {
  %2 = alloca ptr, align 8
  store ptr %0, ptr %2, align 8
  %3 = load ptr, ptr %2, align 8
  ret ptr %3
}

; Function Attrs: mustprogress nounwind uwtable
define dso_local ptr @LLVMIsAFPToUIInst(ptr noundef %0) #0 {
  %2 = alloca ptr, align 8
  store ptr %0, ptr %2, align 8
  %3 = load ptr, ptr %2, align 8
  %4 = call noundef ptr @_ZN4llvm6unwrapEP15LLVMOpaqueValue(ptr noundef %3)
  %5 = call noundef ptr @_ZN4llvm16dyn_cast_or_nullINS_10FPToUIInstENS_5ValueEEEDaPT0_(ptr noundef %4)
  %6 = call noundef ptr @_ZN4llvm4wrapEPKNS_5ValueE(ptr noundef %5)
  ret ptr %6
}